target datalayout = "e-m:e-p270:32:32-p271:32:32-p272:64:64-i64:64-i128:128-f80:128-n8:16:32:64-S128"
target triple = "x86_64-pc-linux-gnu"

%class.anon.12 = type { i8 }

@_ZN4pbrtL15bvhNodesVisitedE = internal thread_local global i64 0, align 8
@.str.67 = private unnamed_addr constant [18 x i8] c"BVH/Nodes visited\00", align 1
@_ZN4pbrtL18bvhNodesVisitedSumE = internal thread_local global i64 0, align 8

; Function Attrs: inlinehint mustprogress uwtable
define internal void @"_ZNK4pbrt4$_11clERNS_16StatsAccumulatorE"(ptr noundef nonnull align 1 dereferenceable(1) %0, ptr noundef nonnull align 8 dereferenceable(8) %1) #11 align 2 {
  %3 = alloca ptr, align 8
  %4 = alloca ptr, align 8
  store ptr %0, ptr %3, align 8, !tbaa !13
  store ptr %1, ptr %4, align 8, !tbaa !356
  %5 = load ptr, ptr %4, align 8, !tbaa !356
  %6 = call align 8 ptr @llvm.threadlocal.address.p0(ptr align 8 @_ZN4pbrtL15bvhNodesVisitedE)
  %7 = load i64, ptr %6, align 8, !tbaa !32
  %8 = call align 8 ptr @llvm.threadlocal.address.p0(ptr align 8 @_ZN4pbrtL18bvhNodesVisitedSumE)
  %9 = load i64, ptr %8, align 8, !tbaa !32
  %10 = add nsw i64 %7, %9
  call void @_ZN4pbrt16StatsAccumulator13ReportCounterEPKcl(ptr noundef nonnull align 8 dereferenceable(8) %5, ptr noundef @.str.67, i64 noundef %10)
  %11 = call align 8 ptr @llvm.threadlocal.address.p0(ptr align 8 @_ZN4pbrtL18bvhNodesVisitedSumE)
  store i64 0, ptr %11, align 8, !tbaa !32
  %12 = call align 8 ptr @llvm.threadlocal.address.p0(ptr align 8 @_ZN4pbrtL15bvhNodesVisitedE)
  store i64 0, ptr %12, align 8, !tbaa !32
  ret void
}

; Function Attrs: inlinehint mustprogress uwtable
define internal void @"_ZN4pbrt4$_118__invokeERNS_16StatsAccumulatorE"(ptr noundef nonnull align 8 dereferenceable(8) %0) #11 align 2 {
  %2 = alloca ptr, align 8
  %3 = alloca %class.anon.12, align 1
  store ptr %0, ptr %2, align 8, !tbaa !356
  %4 = load ptr, ptr %2, align 8
  call void @"_ZNK4pbrt4$_11clERNS_16StatsAccumulatorE"(ptr noundef nonnull align 1 dereferenceable(1) %3, ptr noundef nonnull align 8 dereferenceable(8) %4)
  ret void
}